; ModuleID = 'source-C-CXX/60/1241.cpp'
source_filename = "source-C-CXX/60/1241.cpp"
target datalayout = "e-m:e-p270:32:32-p271:32:32-p272:64:64-i64:64-f80:128-n8:16:32:64-S128"
target triple = "x86_64-pc-linux-gnu"

%"class.std::ios_base::Init" = type { i8 }
%"class.std::basic_istream" = type { i32 (...)**, i64, %"class.std::basic_ios" }
%"class.std::basic_ios" = type { %"class.std::ios_base", %"class.std::basic_ostream"*, i8, i8, %"class.std::basic_streambuf"*, %"class.std::ctype"*, %"class.std::num_put"*, %"class.std::num_get"* }
%"class.std::ios_base" = type { i32 (...)**, i64, i64, i32, i32, i32, %"struct.std::ios_base::_Callback_list"*, %"struct.std::ios_base::_Words", [8 x %"struct.std::ios_base::_Words"], i32, %"struct.std::ios_base::_Words"*, %"class.std::locale" }
%"struct.std::ios_base::_Callback_list" = type { %"struct.std::ios_base::_Callback_list"*, void (i32, %"class.std::ios_base"*, i32)*, i32, i32 }
%"struct.std::ios_base::_Words" = type { i8*, i64 }
%"class.std::locale" = type { %"class.std::locale::_Impl"* }
%"class.std::locale::_Impl" = type { i32, %"class.std::locale::facet"**, i64, %"class.std::locale::facet"**, i8** }
%"class.std::locale::facet" = type <{ i32 (...)**, i32, [4 x i8] }>
%"class.std::basic_ostream" = type { i32 (...)**, %"class.std::basic_ios" }
%"class.std::basic_streambuf" = type { i32 (...)**, i8*, i8*, i8*, i8*, i8*, i8*, %"class.std::locale" }
%"class.std::ctype" = type <{ %"class.std::locale::facet.base", [4 x i8], %struct.__locale_struct*, i8, [7 x i8], i32*, i32*, i16*, i8, [256 x i8], [256 x i8], i8, [6 x i8] }>
%"class.std::locale::facet.base" = type <{ i32 (...)**, i32 }>
%struct.__locale_struct = type { [13 x %struct.__locale_data*], i16*, i32*, i32*, [13 x i8*] }
%struct.__locale_data = type opaque
%"class.std::num_put" = type { %"class.std::locale::facet.base", [4 x i8] }
%"class.std::num_get" = type { %"class.std::locale::facet.base", [4 x i8] }

@_ZStL8__ioinit = internal global %"class.std::ios_base::Init" zeroinitializer, align 1
@__dso_handle = external hidden global i8
@_ZSt3cin = external global %"class.std::basic_istream", align 8
@_ZSt4cout = external global %"class.std::basic_ostream", align 8
@llvm.global_ctors = appending global [1 x { i32, void ()*, i8* }] [{ i32, void ()*, i8* } { i32 65535, void ()* @_GLOBAL__sub_I_1241.cpp, i8* null }]

declare void @_ZNSt8ios_base4InitC1Ev(%"class.std::ios_base::Init"* nonnull align 1 dereferenceable(1)) unnamed_addr #0

; Function Attrs: nounwind
declare void @_ZNSt8ios_base4InitD1Ev(%"class.std::ios_base::Init"* nonnull align 1 dereferenceable(1)) unnamed_addr #1

; Function Attrs: nofree nounwind
declare i32 @__cxa_atexit(void (i8*)*, i8*, i8*) local_unnamed_addr #2

; Function Attrs: mustprogress norecurse sspstrong uwtable
define dso_local i32 @main() local_unnamed_addr #3 {
  %1 = alloca [20 x i32], align 16
  %2 = alloca i32, align 4
  %3 = alloca i32, align 4
  %4 = bitcast [20 x i32]* %1 to i8*
  call void @llvm.lifetime.start.p0i8(i64 80, i8* nonnull %4) #8
  call void @llvm.memset.p0i8.i64(i8* noundef nonnull align 16 dereferenceable(80) %4, i8 0, i64 80, i1 false)
  %5 = getelementptr inbounds [20 x i32], [20 x i32]* %1, i64 0, i64 0
  store i32 1, i32* %5, align 16
  %6 = getelementptr inbounds [20 x i32], [20 x i32]* %1, i64 0, i64 1
  store i32 1, i32* %6, align 4
  %7 = bitcast i32* %2 to i8*
  call void @llvm.lifetime.start.p0i8(i64 4, i8* nonnull %7) #8
  %8 = bitcast i32* %3 to i8*
  call void @llvm.lifetime.start.p0i8(i64 4, i8* nonnull %8) #8
  %9 = call nonnull align 8 dereferenceable(16) %"class.std::basic_istream"* @_ZNSirsERi(%"class.std::basic_istream"* nonnull align 8 dereferenceable(16) @_ZSt3cin, i32* nonnull align 4 dereferenceable(4) %3)
  %10 = load i32, i32* %3, align 4, !tbaa !5
  %11 = icmp slt i32 %10, 1
  br i1 %11, label %99, label %12

12:                                               ; preds = %0, %92
  %13 = phi i32 [ %96, %92 ], [ 1, %0 ]
  %14 = call nonnull align 8 dereferenceable(16) %"class.std::basic_istream"* @_ZNSirsERi(%"class.std::basic_istream"* nonnull align 8 dereferenceable(16) @_ZSt3cin, i32* nonnull align 4 dereferenceable(4) %2)
  %15 = load i32, i32* %2, align 4, !tbaa !5
  %16 = icmp sgt i32 %15, 2
  br i1 %16, label %17, label %60

17:                                               ; preds = %12
  %18 = zext i32 %15 to i64
  %19 = load i32, i32* %6, align 4, !tbaa !5
  %20 = add nsw i64 %18, -2
  %21 = add nsw i64 %18, -3
  %22 = and i64 %20, 3
  %23 = icmp ult i64 %21, 3
  br i1 %23, label %45, label %24

24:                                               ; preds = %17
  %25 = and i64 %20, -4
  br label %26

26:                                               ; preds = %26, %24
  %27 = phi i32 [ %19, %24 ], [ %40, %26 ]
  %28 = phi i32 [ 1, %24 ], [ %37, %26 ]
  %29 = phi i64 [ 2, %24 ], [ %42, %26 ]
  %30 = phi i64 [ %25, %24 ], [ %43, %26 ]
  %31 = add nsw i32 %27, %28
  %32 = getelementptr inbounds [20 x i32], [20 x i32]* %1, i64 0, i64 %29
  store i32 %31, i32* %32, align 8, !tbaa !5
  %33 = or i64 %29, 1
  %34 = add nsw i32 %31, %27
  %35 = getelementptr inbounds [20 x i32], [20 x i32]* %1, i64 0, i64 %33
  store i32 %34, i32* %35, align 4, !tbaa !5
  %36 = add nuw nsw i64 %29, 2
  %37 = add nsw i32 %34, %31
  %38 = getelementptr inbounds [20 x i32], [20 x i32]* %1, i64 0, i64 %36
  store i32 %37, i32* %38, align 8, !tbaa !5
  %39 = add nuw nsw i64 %29, 3
  %40 = add nsw i32 %37, %34
  %41 = getelementptr inbounds [20 x i32], [20 x i32]* %1, i64 0, i64 %39
  store i32 %40, i32* %41, align 4, !tbaa !5
  %42 = add nuw nsw i64 %29, 4
  %43 = add i64 %30, -4
  %44 = icmp eq i64 %43, 0
  br i1 %44, label %45, label %26, !llvm.loop !9

45:                                               ; preds = %26, %17
  %46 = phi i32 [ %19, %17 ], [ %40, %26 ]
  %47 = phi i32 [ 1, %17 ], [ %37, %26 ]
  %48 = phi i64 [ 2, %17 ], [ %42, %26 ]
  %49 = icmp eq i64 %22, 0
  br i1 %49, label %60, label %50

50:                                               ; preds = %45, %50
  %51 = phi i32 [ %55, %50 ], [ %46, %45 ]
  %52 = phi i32 [ %51, %50 ], [ %47, %45 ]
  %53 = phi i64 [ %57, %50 ], [ %48, %45 ]
  %54 = phi i64 [ %58, %50 ], [ %22, %45 ]
  %55 = add nsw i32 %51, %52
  %56 = getelementptr inbounds [20 x i32], [20 x i32]* %1, i64 0, i64 %53
  store i32 %55, i32* %56, align 4, !tbaa !5
  %57 = add nuw nsw i64 %53, 1
  %58 = add i64 %54, -1
  %59 = icmp eq i64 %58, 0
  br i1 %59, label %60, label %50, !llvm.loop !11

60:                                               ; preds = %45, %50, %12
  %61 = phi i32 [ 2, %12 ], [ %15, %50 ], [ %15, %45 ]
  %62 = add nsw i32 %61, -1
  %63 = sext i32 %62 to i64
  %64 = getelementptr inbounds [20 x i32], [20 x i32]* %1, i64 0, i64 %63
  %65 = load i32, i32* %64, align 4, !tbaa !5
  %66 = call nonnull align 8 dereferenceable(8) %"class.std::basic_ostream"* @_ZNSolsEi(%"class.std::basic_ostream"* nonnull align 8 dereferenceable(8) @_ZSt4cout, i32 %65)
  %67 = bitcast %"class.std::basic_ostream"* %66 to i8**
  %68 = load i8*, i8** %67, align 8, !tbaa !13
  %69 = getelementptr i8, i8* %68, i64 -24
  %70 = bitcast i8* %69 to i64*
  %71 = load i64, i64* %70, align 8
  %72 = bitcast %"class.std::basic_ostream"* %66 to i8*
  %73 = add nsw i64 %71, 240
  %74 = getelementptr inbounds i8, i8* %72, i64 %73
  %75 = bitcast i8* %74 to %"class.std::ctype"**
  %76 = load %"class.std::ctype"*, %"class.std::ctype"** %75, align 8, !tbaa !15
  %77 = icmp eq %"class.std::ctype"* %76, null
  br i1 %77, label %78, label %79

78:                                               ; preds = %60
  call void @_ZSt16__throw_bad_castv() #9
  unreachable

79:                                               ; preds = %60
  %80 = getelementptr inbounds %"class.std::ctype", %"class.std::ctype"* %76, i64 0, i32 8
  %81 = load i8, i8* %80, align 8, !tbaa !19
  %82 = icmp eq i8 %81, 0
  br i1 %82, label %86, label %83

83:                                               ; preds = %79
  %84 = getelementptr inbounds %"class.std::ctype", %"class.std::ctype"* %76, i64 0, i32 9, i64 10
  %85 = load i8, i8* %84, align 1, !tbaa !21
  br label %92

86:                                               ; preds = %79
  call void @_ZNKSt5ctypeIcE13_M_widen_initEv(%"class.std::ctype"* nonnull align 8 dereferenceable(570) %76)
  %87 = bitcast %"class.std::ctype"* %76 to i8 (%"class.std::ctype"*, i8)***
  %88 = load i8 (%"class.std::ctype"*, i8)**, i8 (%"class.std::ctype"*, i8)*** %87, align 8, !tbaa !13
  %89 = getelementptr inbounds i8 (%"class.std::ctype"*, i8)*, i8 (%"class.std::ctype"*, i8)** %88, i64 6
  %90 = load i8 (%"class.std::ctype"*, i8)*, i8 (%"class.std::ctype"*, i8)** %89, align 8
  %91 = call signext i8 %90(%"class.std::ctype"* nonnull align 8 dereferenceable(570) %76, i8 signext 10)
  br label %92

92:                                               ; preds = %83, %86
  %93 = phi i8 [ %85, %83 ], [ %91, %86 ]
  %94 = call nonnull align 8 dereferenceable(8) %"class.std::basic_ostream"* @_ZNSo3putEc(%"class.std::basic_ostream"* nonnull align 8 dereferenceable(8) %66, i8 signext %93)
  %95 = call nonnull align 8 dereferenceable(8) %"class.std::basic_ostream"* @_ZNSo5flushEv(%"class.std::basic_ostream"* nonnull align 8 dereferenceable(8) %94)
  %96 = add nuw nsw i32 %13, 1
  %97 = load i32, i32* %3, align 4, !tbaa !5
  %98 = icmp slt i32 %13, %97
  br i1 %98, label %12, label %99, !llvm.loop !22

99:                                               ; preds = %92, %0
  call void @llvm.lifetime.end.p0i8(i64 4, i8* nonnull %8) #8
  call void @llvm.lifetime.end.p0i8(i64 4, i8* nonnull %7) #8
  call void @llvm.lifetime.end.p0i8(i64 80, i8* nonnull %4) #8
  ret i32 0
}

; Function Attrs: argmemonly mustprogress nofree nosync nounwind willreturn
declare void @llvm.lifetime.start.p0i8(i64 immarg, i8* nocapture) #4

; Function Attrs: argmemonly mustprogress nofree nounwind willreturn writeonly
declare void @llvm.memset.p0i8.i64(i8* nocapture writeonly, i8, i64, i1 immarg) #5

declare nonnull align 8 dereferenceable(16) %"class.std::basic_istream"* @_ZNSirsERi(%"class.std::basic_istream"* nonnull align 8 dereferenceable(16), i32* nonnull align 4 dereferenceable(4)) local_unnamed_addr #0

declare nonnull align 8 dereferenceable(8) %"class.std::basic_ostream"* @_ZNSolsEi(%"class.std::basic_ostream"* nonnull align 8 dereferenceable(8), i32) local_unnamed_addr #0

; Function Attrs: argmemonly mustprogress nofree nosync nounwind willreturn
declare void @llvm.lifetime.end.p0i8(i64 immarg, i8* nocapture) #4

declare nonnull align 8 dereferenceable(8) %"class.std::basic_ostream"* @_ZNSo3putEc(%"class.std::basic_ostream"* nonnull align 8 dereferenceable(8), i8 signext) local_unnamed_addr #0

declare nonnull align 8 dereferenceable(8) %"class.std::basic_ostream"* @_ZNSo5flushEv(%"class.std::basic_ostream"* nonnull align 8 dereferenceable(8)) local_unnamed_addr #0

; Function Attrs: noreturn
declare void @_ZSt16__throw_bad_castv() local_unnamed_addr #6

declare void @_ZNKSt5ctypeIcE13_M_widen_initEv(%"class.std::ctype"* nonnull align 8 dereferenceable(570)) local_unnamed_addr #0

; Function Attrs: sspstrong uwtable
define internal void @_GLOBAL__sub_I_1241.cpp() #7 section ".text.startup" {
  tail call void @_ZNSt8ios_base4InitC1Ev(%"class.std::ios_base::Init"* nonnull align 1 dereferenceable(1) @_ZStL8__ioinit)
  %1 = tail call i32 @__cxa_atexit(void (i8*)* bitcast (void (%"class.std::ios_base::Init"*)* @_ZNSt8ios_base4InitD1Ev to void (i8*)*), i8* getelementptr inbounds (%"class.std::ios_base::Init", %"class.std::ios_base::Init"* @_ZStL8__ioinit, i64 0, i32 0), i8* nonnull @__dso_handle) #8
  ret void
}


!llvm.module.flags = !{!0, !1, !2, !3}
!llvm.ident = !{!4}

!0 = !{i32 1, !"wchar_size", i32 4}
!1 = !{i32 7, !"PIC Level", i32 2}
!2 = !{i32 7, !"PIE Level", i32 2}
!3 = !{i32 7, !"uwtable", i32 1}
!4 = !{!"clang version 13.0.0"}
!5 = !{!6, !6, i64 0}
!6 = !{!"int", !7, i64 0}
!7 = !{!"omnipotent char", !8, i64 0}
!8 = !{!"Simple C++ TBAA"}
!9 = distinct !{!9, !10}
!10 = !{!"llvm.loop.mustprogress"}
!11 = distinct !{!11, !12}
!12 = !{!"llvm.loop.unroll.disable"}
!13 = !{!14, !14, i64 0}
!14 = !{!"vtable pointer", !8, i64 0}
!15 = !{!16, !17, i64 240}
!16 = !{!"_ZTSSt9basic_iosIcSt11char_traitsIcEE", !17, i64 216, !7, i64 224, !18, i64 225, !17, i64 232, !17, i64 240, !17, i64 248, !17, i64 256}
!17 = !{!"any pointer", !7, i64 0}
!18 = !{!"bool", !7, i64 0}
!19 = !{!20, !7, i64 56}
!20 = !{!"_ZTSSt5ctypeIcE", !17, i64 16, !18, i64 24, !17, i64 32, !17, i64 40, !17, i64 48, !7, i64 56, !7, i64 57, !7, i64 313, !7, i64 569}
!21 = !{!7, !7, i64 0}
!22 = distinct !{!22, !10}
